; Function Attrs: nounwind sspstrong uwtable
define internal void @machine_get_phandle_start(ptr noundef %obj, ptr noundef %v, ptr noundef %name, ptr readnone captures(none) %opaque, ptr noundef %errp) #0 {
entry:
  %value = alloca i64, align 8
  %call.i = tail call ptr @object_dynamic_cast_assert(ptr noundef %obj, ptr noundef nonnull @.str.225, ptr noundef nonnull @.str.226, i32 noundef 23, ptr noundef nonnull @__func__.MACHINE) #16
  %phandle_start = getelementptr inbounds nuw i8, ptr %call.i, i64 64
  %0 = load i32, ptr %phandle_start, align 8
  %conv = sext i32 %0 to i64
  store i64 %conv, ptr %value, align 8
  %call1 = call zeroext i1 @visit_type_int(ptr noundef %v, ptr noundef %name, ptr noundef nonnull %value, ptr noundef %errp) #16
  ret void
}